; Function Attrs: mustprogress uwtable
define hidden void @_ZN4cvc58internal6theory16RelevanceManager20notifyCandidateModelEPNS1_11TheoryModelE(ptr noundef nonnull readonly align 8 captures(none) dereferenceable(656) %0, ptr noundef %1) unnamed_addr #4 align 2 {
  %3 = getelementptr inbounds nuw i8, ptr %0, i64 648
  %4 = load ptr, ptr %3, align 8, !tbaa !293
  %.not = icmp eq ptr %4, null
  br i1 %.not, label %6, label %5

5:                                                ; preds = %2
  tail call void @_ZN4cvc58internal6theory17DifficultyManager20notifyCandidateModelEPNS1_11TheoryModelE(ptr noundef nonnull align 8 dereferenceable(256) %4, ptr noundef %1)
  br label %6

6:                                                ; preds = %5, %2
  ret void
}